; ModuleID = '10/253.c'
source_filename = "10/253.c"
target datalayout = "e-m:e-p270:32:32-p271:32:32-p272:64:64-i64:64-f80:128-n8:16:32:64-S128"
target triple = "x86_64-pc-linux-gnu"

@.str = private unnamed_addr constant [3 x i8] c"%d\00", align 1

; Function Attrs: noinline nounwind uwtable
define dso_local i32 @main() #0 {
  %1 = alloca i32, align 4
  %2 = alloca [25 x i32], align 16
  %3 = alloca [25 x i32], align 16
  %4 = alloca i32, align 4
  %5 = alloca i32, align 4
  %6 = alloca i32, align 4
  %7 = alloca i32, align 4
  store i32 0, i32* %1, align 4
  %8 = call i32 (i8*, ...) @__isoc99_scanf(i8* getelementptr inbounds ([3 x i8], [3 x i8]* @.str, i64 0, i64 0), i32* %6)
  store i32 0, i32* %4, align 4
  br label %9

9:                                                ; preds = %17, %0
  %10 = load i32, i32* %4, align 4
  %11 = load i32, i32* %6, align 4
  %12 = icmp slt i32 %10, %11
  br i1 %12, label %13, label %20

13:                                               ; preds = %9
  %14 = load i32, i32* %4, align 4
  %15 = sext i32 %14 to i64
  %16 = getelementptr inbounds [25 x i32], [25 x i32]* %3, i64 0, i64 %15
  store i32 1, i32* %16, align 4
  br label %17

17:                                               ; preds = %13
  %18 = load i32, i32* %4, align 4
  %19 = add nsw i32 %18, 1
  store i32 %19, i32* %4, align 4
  br label %9

20:                                               ; preds = %9
  store i32 0, i32* %4, align 4
  br label %21

21:                                               ; preds = %31, %20
  %22 = load i32, i32* %4, align 4
  %23 = load i32, i32* %6, align 4
  %24 = sub nsw i32 %23, 1
  %25 = icmp sle i32 %22, %24
  br i1 %25, label %26, label %34

26:                                               ; preds = %21
  %27 = load i32, i32* %4, align 4
  %28 = sext i32 %27 to i64
  %29 = getelementptr inbounds [25 x i32], [25 x i32]* %2, i64 0, i64 %28
  %30 = call i32 (i8*, ...) @__isoc99_scanf(i8* getelementptr inbounds ([3 x i8], [3 x i8]* @.str, i64 0, i64 0), i32* %29)
  br label %31

31:                                               ; preds = %26
  %32 = load i32, i32* %4, align 4
  %33 = add nsw i32 %32, 1
  store i32 %33, i32* %4, align 4
  br label %21

34:                                               ; preds = %21
  %35 = load i32, i32* %6, align 4
  %36 = sub nsw i32 %35, 2
  store i32 %36, i32* %4, align 4
  br label %37

37:                                               ; preds = %82, %34
  %38 = load i32, i32* %4, align 4
  %39 = icmp sge i32 %38, 0
  br i1 %39, label %40, label %85

40:                                               ; preds = %37
  %41 = load i32, i32* %4, align 4
  %42 = add nsw i32 %41, 1
  store i32 %42, i32* %5, align 4
  br label %43

43:                                               ; preds = %78, %40
  %44 = load i32, i32* %5, align 4
  %45 = load i32, i32* %6, align 4
  %46 = sub nsw i32 %45, 1
  %47 = icmp sle i32 %44, %46
  br i1 %47, label %48, label %81

48:                                               ; preds = %43
  %49 = load i32, i32* %5, align 4
  %50 = sext i32 %49 to i64
  %51 = getelementptr inbounds [25 x i32], [25 x i32]* %2, i64 0, i64 %50
  %52 = load i32, i32* %51, align 4
  %53 = load i32, i32* %4, align 4
  %54 = sext i32 %53 to i64
  %55 = getelementptr inbounds [25 x i32], [25 x i32]* %2, i64 0, i64 %54
  %56 = load i32, i32* %55, align 4
  %57 = icmp sle i32 %52, %56
  br i1 %57, label %58, label %77

58:                                               ; preds = %48
  %59 = load i32, i32* %4, align 4
  %60 = sext i32 %59 to i64
  %61 = getelementptr inbounds [25 x i32], [25 x i32]* %3, i64 0, i64 %60
  %62 = load i32, i32* %61, align 4
  %63 = load i32, i32* %5, align 4
  %64 = sext i32 %63 to i64
  %65 = getelementptr inbounds [25 x i32], [25 x i32]* %3, i64 0, i64 %64
  %66 = load i32, i32* %65, align 4
  %67 = icmp sle i32 %62, %66
  br i1 %67, label %68, label %77

68:                                               ; preds = %58
  %69 = load i32, i32* %5, align 4
  %70 = sext i32 %69 to i64
  %71 = getelementptr inbounds [25 x i32], [25 x i32]* %3, i64 0, i64 %70
  %72 = load i32, i32* %71, align 4
  %73 = add nsw i32 %72, 1
  %74 = load i32, i32* %4, align 4
  %75 = sext i32 %74 to i64
  %76 = getelementptr inbounds [25 x i32], [25 x i32]* %3, i64 0, i64 %75
  store i32 %73, i32* %76, align 4
  br label %77

77:                                               ; preds = %68, %58, %48
  br label %78

78:                                               ; preds = %77
  %79 = load i32, i32* %5, align 4
  %80 = add nsw i32 %79, 1
  store i32 %80, i32* %5, align 4
  br label %43

81:                                               ; preds = %43
  br label %82

82:                                               ; preds = %81
  %83 = load i32, i32* %4, align 4
  %84 = add nsw i32 %83, -1
  store i32 %84, i32* %4, align 4
  br label %37

85:                                               ; preds = %37
  store i32 0, i32* %7, align 4
  store i32 0, i32* %4, align 4
  br label %86

86:                                               ; preds = %103, %85
  %87 = load i32, i32* %4, align 4
  %88 = load i32, i32* %6, align 4
  %89 = icmp slt i32 %87, %88
  br i1 %89, label %90, label %106

90:                                               ; preds = %86
  %91 = load i32, i32* %4, align 4
  %92 = sext i32 %91 to i64
  %93 = getelementptr inbounds [25 x i32], [25 x i32]* %3, i64 0, i64 %92
  %94 = load i32, i32* %93, align 4
  %95 = load i32, i32* %7, align 4
  %96 = icmp sge i32 %94, %95
  br i1 %96, label %97, label %102

97:                                               ; preds = %90
  %98 = load i32, i32* %4, align 4
  %99 = sext i32 %98 to i64
  %100 = getelementptr inbounds [25 x i32], [25 x i32]* %3, i64 0, i64 %99
  %101 = load i32, i32* %100, align 4
  store i32 %101, i32* %7, align 4
  br label %102

102:                                              ; preds = %97, %90
  br label %103

103:                                              ; preds = %102
  %104 = load i32, i32* %4, align 4
  %105 = add nsw i32 %104, 1
  store i32 %105, i32* %4, align 4
  br label %86

106:                                              ; preds = %86
  %107 = load i32, i32* %7, align 4
  %108 = call i32 (i8*, ...) @printf(i8* getelementptr inbounds ([3 x i8], [3 x i8]* @.str, i64 0, i64 0), i32 %107)
  %109 = load i32, i32* %1, align 4
  ret i32 %109
}

declare dso_local i32 @__isoc99_scanf(i8*, ...) #1

declare dso_local i32 @printf(i8*, ...) #1


!llvm.module.flags = !{!0}
!llvm.ident = !{!1}

!0 = !{i32 1, !"wchar_size", i32 4}
!1 = !{!"clang version 10.0.0-4ubuntu1 "}
